target datalayout = "e-m:e-p270:32:32-p271:32:32-p272:64:64-i64:64-i128:128-f80:128-n8:16:32:64-S128"
target triple = "x86_64-pc-linux-gnu"

%struct.ASNItem = type { i8, i8, i8, i8 }
%struct.ASNGetData = type { i32, i32, %union.anon.0, i8, i8 }
%union.anon.0 = type { %struct.anon.3 }
%struct.anon.3 = type { ptr, i32, i32, i32 }

@intASN = internal constant [1 x %struct.ASNItem] [%struct.ASNItem { i8 0, i8 2, i8 0, i8 0 }], align 1

; Function Attrs: nounwind uwtable
define i32 @GetShortInt(ptr noundef %0, ptr noundef %1, ptr noundef %2, i32 noundef %3) #0 {
  %5 = alloca ptr, align 8
  %6 = alloca ptr, align 8
  %7 = alloca ptr, align 8
  %8 = alloca i32, align 4
  %9 = alloca [1 x %struct.ASNGetData], align 16
  %10 = alloca i32, align 4
  %11 = alloca i32, align 4
  store ptr %0, ptr %5, align 8, !tbaa !7
  store ptr %1, ptr %6, align 8, !tbaa !18
  store ptr %2, ptr %7, align 8, !tbaa !18
  store i32 %3, ptr %8, align 4, !tbaa !3
  call void @llvm.lifetime.start.p0(i64 40, ptr %9) #9
  call void @llvm.lifetime.start.p0(i64 4, ptr %10) #9
  call void @llvm.lifetime.start.p0(i64 4, ptr %11) #9
  store i32 0, ptr %11, align 4, !tbaa !3
  %12 = getelementptr inbounds [1 x %struct.ASNGetData], ptr %9, i64 0, i64 0
  call void @llvm.memset.p0.i64(ptr align 16 %12, i8 0, i64 40, i1 false)
  br label %13

13:                                               ; preds = %4
  %14 = getelementptr inbounds [1 x %struct.ASNGetData], ptr %9, i64 0, i64 0
  %15 = getelementptr inbounds nuw %struct.ASNGetData, ptr %14, i32 0, i32 3
  store i8 4, ptr %15, align 16, !tbaa !43
  %16 = getelementptr inbounds [1 x %struct.ASNGetData], ptr %9, i64 0, i64 0
  %17 = getelementptr inbounds nuw %struct.ASNGetData, ptr %16, i32 0, i32 2
  store ptr %11, ptr %17, align 8, !tbaa !10
  br label %18

18:                                               ; preds = %13
  br label %19

19:                                               ; preds = %18
  %20 = getelementptr inbounds [1 x %struct.ASNGetData], ptr %9, i64 0, i64 0
  %21 = load ptr, ptr %5, align 8, !tbaa !7
  %22 = load ptr, ptr %6, align 8, !tbaa !18
  %23 = load i32, ptr %8, align 4, !tbaa !3
  %24 = call i32 @GetASN_Items(ptr noundef @intASN, ptr noundef %20, i32 noundef 1, i32 noundef 0, ptr noundef %21, ptr noundef %22, i32 noundef %23)
  store i32 %24, ptr %10, align 4, !tbaa !3
  %25 = load i32, ptr %10, align 4, !tbaa !3
  %26 = icmp eq i32 %25, 0
  br i1 %26, label %27, label %31

27:                                               ; preds = %19
  %28 = load i32, ptr %11, align 4, !tbaa !3
  %29 = load ptr, ptr %7, align 8, !tbaa !18
  store i32 %28, ptr %29, align 4, !tbaa !3
  %30 = load i32, ptr %11, align 4, !tbaa !3
  store i32 %30, ptr %10, align 4, !tbaa !3
  br label %31

31:                                               ; preds = %27, %19
  %32 = load i32, ptr %10, align 4, !tbaa !3
  call void @llvm.lifetime.end.p0(i64 4, ptr %11) #9
  call void @llvm.lifetime.end.p0(i64 4, ptr %10) #9
  call void @llvm.lifetime.end.p0(i64 40, ptr %9) #9
  ret i32 %32
}