; Function Attrs: nounwind uwtable
define i32 @GetShortInt(ptr noundef %0, ptr noundef captures(none) %1, ptr noundef writeonly captures(none) %2, i32 noundef %3) local_unnamed_addr #2 {
  %5 = alloca [1 x %struct.ASNGetData], align 16
  %6 = alloca i32, align 4
  call void @llvm.lifetime.start.p0(i64 40, ptr nonnull %5) #22
  call void @llvm.lifetime.start.p0(i64 4, ptr nonnull %6) #22
  store i32 0, ptr %6, align 4, !tbaa !22
  call void @llvm.memset.p0.i64(ptr noundef nonnull align 16 dereferenceable(40) %5, i8 0, i64 40, i1 false)
  %7 = getelementptr inbounds nuw i8, ptr %5, i64 32
  store i8 4, ptr %7, align 16, !tbaa !32
  %8 = getelementptr inbounds nuw i8, ptr %5, i64 8
  store ptr %6, ptr %8, align 8, !tbaa !3
  %9 = call i32 @GetASN_Items(ptr noundef nonnull @intASN, ptr noundef nonnull %5, i32 noundef 1, i32 noundef 0, ptr noundef %0, ptr noundef %1, i32 noundef %3)
  %10 = icmp eq i32 %9, 0
  br i1 %10, label %11, label %13

11:                                               ; preds = %4
  %12 = load i32, ptr %6, align 4, !tbaa !22
  store i32 %12, ptr %2, align 4, !tbaa !22
  br label %13

13:                                               ; preds = %11, %4
  %.0 = phi i32 [ %12, %11 ], [ %9, %4 ]
  call void @llvm.lifetime.end.p0(i64 4, ptr nonnull %6) #22
  call void @llvm.lifetime.end.p0(i64 40, ptr nonnull %5) #22
  ret i32 %.0
}